target datalayout = "e-m:e-p270:32:32-p271:32:32-p272:64:64-i64:64-i128:128-f80:128-n8:16:32:64-S128"
target triple = "x86_64-pc-linux-gnu"

%struct.vfd = type { i32, i16, ptr, i32, i32, i32, i64, ptr, i32, i32 }

@VfdCache = internal global ptr null, align 8
@my_wait_event_info = external global ptr, align 8

; Function Attrs: inlinehint nounwind uwtable
define internal void @pgstat_report_wait_end() #9 {
  %1 = load ptr, ptr @my_wait_event_info, align 8
  store volatile i32 0, ptr %1, align 4
  ret void
}

; Function Attrs: inlinehint nounwind uwtable
define internal void @pgstat_report_wait_start(i32 noundef %0) #9 {
  %2 = alloca i32, align 4
  store i32 %0, ptr %2, align 4
  %3 = load i32, ptr %2, align 4
  %4 = load ptr, ptr @my_wait_event_info, align 8
  store volatile i32 %3, ptr %4, align 4
  ret void
}

; Function Attrs: nounwind uwtable
define dso_local i32 @FileZero(i32 noundef %0, i64 noundef %1, i64 noundef %2, i32 noundef %3) #0 {
  %5 = alloca i32, align 4
  %6 = alloca i32, align 4
  %7 = alloca i64, align 8
  %8 = alloca i64, align 8
  %9 = alloca i32, align 4
  %10 = alloca i32, align 4
  %11 = alloca i64, align 8
  %12 = alloca i32, align 4
  store i32 %0, ptr %6, align 4
  store i64 %1, ptr %7, align 8
  store i64 %2, ptr %8, align 8
  store i32 %3, ptr %9, align 4
  call void @llvm.lifetime.start.p0(i64 4, ptr %10) #14
  call void @llvm.lifetime.start.p0(i64 8, ptr %11) #14
  %13 = load i32, ptr %6, align 4
  %14 = call i32 @FileAccess(i32 noundef %13)
  store i32 %14, ptr %10, align 4
  %15 = load i32, ptr %10, align 4
  %16 = icmp slt i32 %15, 0
  br i1 %16, label %17, label %19

17:                                               ; preds = %4
  %18 = load i32, ptr %10, align 4
  store i32 %18, ptr %5, align 4
  store i32 1, ptr %12, align 4
  br label %46

19:                                               ; preds = %4
  %20 = load i32, ptr %9, align 4
  call void @pgstat_report_wait_start(i32 noundef %20)
  %21 = load ptr, ptr @VfdCache, align 8
  %22 = load i32, ptr %6, align 4
  %23 = sext i32 %22 to i64
  %24 = getelementptr inbounds %struct.vfd, ptr %21, i64 %23
  %25 = getelementptr inbounds nuw %struct.vfd, ptr %24, i32 0, i32 0
  %26 = load i32, ptr %25, align 8
  %27 = load i64, ptr %8, align 8
  %28 = load i64, ptr %7, align 8
  %29 = call i64 @pg_pwrite_zeros(i32 noundef %26, i64 noundef %27, i64 noundef %28)
  store i64 %29, ptr %11, align 8
  call void @pgstat_report_wait_end()
  %30 = load i64, ptr %11, align 8
  %31 = icmp slt i64 %30, 0
  br i1 %31, label %32, label %33

32:                                               ; preds = %19
  store i32 -1, ptr %5, align 4
  store i32 1, ptr %12, align 4
  br label %46

33:                                               ; preds = %19
  %34 = load i64, ptr %11, align 8
  %35 = load i64, ptr %8, align 8
  %36 = icmp ne i64 %34, %35
  br i1 %36, label %37, label %44

37:                                               ; preds = %33
  %38 = call ptr @__errno_location() #15
  %39 = load i32, ptr %38, align 4
  %40 = icmp eq i32 %39, 0
  br i1 %40, label %41, label %43

41:                                               ; preds = %37
  %42 = call ptr @__errno_location() #15
  store i32 28, ptr %42, align 4
  br label %43

43:                                               ; preds = %41, %37
  store i32 -1, ptr %5, align 4
  store i32 1, ptr %12, align 4
  br label %46

44:                                               ; preds = %33
  br label %45

45:                                               ; preds = %44
  store i32 0, ptr %5, align 4
  store i32 1, ptr %12, align 4
  br label %46

46:                                               ; preds = %45, %43, %32, %17
  call void @llvm.lifetime.end.p0(i64 8, ptr %11) #14
  call void @llvm.lifetime.end.p0(i64 4, ptr %10) #14
  %47 = load i32, ptr %5, align 4
  ret i32 %47
}