; Function Attrs: nounwind uwtable
define dso_local range(i32 -1, 1) i32 @FileZero(i32 noundef %0, i64 noundef %1, i64 noundef %2, i32 noundef %3) local_unnamed_addr #0 {
  %5 = tail call fastcc i32 @FileAccess(i32 noundef %0)
  %6 = icmp slt i32 %5, 0
  br i1 %6, label %22, label %7

7:                                                ; preds = %4
  %8 = load ptr, ptr @my_wait_event_info, align 8
  store volatile i32 %3, ptr %8, align 4
  %9 = load ptr, ptr @VfdCache, align 8
  %10 = sext i32 %0 to i64
  %11 = getelementptr inbounds %struct.vfd, ptr %9, i64 %10
  %12 = load i32, ptr %11, align 8
  %13 = tail call i64 @pg_pwrite_zeros(i32 noundef %12, i64 noundef %2, i64 noundef %1) #25
  %14 = load ptr, ptr @my_wait_event_info, align 8
  store volatile i32 0, ptr %14, align 4
  %15 = icmp slt i64 %13, 0
  br i1 %15, label %22, label %16

16:                                               ; preds = %7
  %.not = icmp eq i64 %13, %2
  br i1 %.not, label %22, label %17

17:                                               ; preds = %16
  %18 = tail call ptr @__errno_location() #26
  %19 = load i32, ptr %18, align 4
  %20 = icmp eq i32 %19, 0
  br i1 %20, label %21, label %22

21:                                               ; preds = %17
  store i32 28, ptr %18, align 4
  br label %22

22:                                               ; preds = %16, %17, %21, %7, %4
  %.0 = phi i32 [ -1, %4 ], [ -1, %7 ], [ -1, %21 ], [ -1, %17 ], [ 0, %16 ]
  ret i32 %.0
}